target datalayout = "e-m:e-p270:32:32-p271:32:32-p272:64:64-i64:64-i128:128-f80:128-n8:16:32:64-S128"
target triple = "x86_64-unknown-linux-gnu"

%"struct.node::quic::TransportParams::Config" = type { i32, ptr, ptr }

; Function Attrs: mustprogress nounwind uwtable
define dso_local void @_ZN4node4quic15TransportParams6ConfigC2ENS0_4SideERKNS0_3CIDES6_(ptr noundef nonnull align 8 dereferenceable(24) %this, i32 noundef %side, ptr noundef nonnull align 8 dereferenceable(48) %ocid, ptr noundef nonnull align 8 dereferenceable(48) %retry_scid) unnamed_addr #4 align 2 {
entry:
  %this.addr = alloca ptr, align 8
  %side.addr = alloca i32, align 4
  %ocid.addr = alloca ptr, align 8
  %retry_scid.addr = alloca ptr, align 8
  store ptr %this, ptr %this.addr, align 8
  store i32 %side, ptr %side.addr, align 4
  store ptr %ocid, ptr %ocid.addr, align 8
  store ptr %retry_scid, ptr %retry_scid.addr, align 8
  %this1 = load ptr, ptr %this.addr, align 8
  %side2 = getelementptr inbounds %"struct.node::quic::TransportParams::Config", ptr %this1, i32 0, i32 0
  %0 = load i32, ptr %side.addr, align 4
  store i32 %0, ptr %side2, align 8
  %ocid3 = getelementptr inbounds %"struct.node::quic::TransportParams::Config", ptr %this1, i32 0, i32 1
  %1 = load ptr, ptr %ocid.addr, align 8
  store ptr %1, ptr %ocid3, align 8
  %retry_scid4 = getelementptr inbounds %"struct.node::quic::TransportParams::Config", ptr %this1, i32 0, i32 2
  %2 = load ptr, ptr %retry_scid.addr, align 8
  store ptr %2, ptr %retry_scid4, align 8
  ret void
}