; Function Attrs: mustprogress nofree norecurse nosync nounwind willreturn memory(argmem: write) uwtable
define dso_local void @_ZN4node4quic15TransportParams6ConfigC2ENS0_4SideERKNS0_3CIDES6_(ptr nocapture noundef nonnull writeonly align 8 dereferenceable(24) %this, i32 noundef %side, ptr noundef nonnull align 8 dereferenceable(48) %ocid, ptr noundef nonnull align 8 dereferenceable(48) %retry_scid) unnamed_addr #4 align 2 {
entry:
  store i32 %side, ptr %this, align 8
  %ocid3 = getelementptr inbounds i8, ptr %this, i64 8
  store ptr %ocid, ptr %ocid3, align 8
  %retry_scid4 = getelementptr inbounds i8, ptr %this, i64 16
  store ptr %retry_scid, ptr %retry_scid4, align 8
  ret void
}